; Function Attrs: nounwind uwtable
define i32 @arkStep_NlsResidual_MassIdent(ptr noundef %0, ptr noundef %1, ptr noundef %2) #0 {
  %4 = alloca ptr, align 8
  %5 = alloca ptr, align 8
  %6 = alloca [3 x double], align 16
  %7 = alloca [3 x ptr], align 16
  call void @llvm.lifetime.start.p0(i64 8, ptr nonnull %4) #5
  call void @llvm.lifetime.start.p0(i64 8, ptr nonnull %5) #5
  call void @llvm.lifetime.start.p0(i64 24, ptr nonnull %6) #5
  call void @llvm.lifetime.start.p0(i64 24, ptr nonnull %7) #5
  %8 = call i32 @arkStep_AccessARKODEStepMem(ptr noundef %2, ptr noundef nonnull @__func__.arkStep_NlsResidual_MassIdent, ptr noundef nonnull %4, ptr noundef nonnull %5) #5
  %.not = icmp eq i32 %8, 0
  br i1 %.not, label %9, label %58

9:                                                ; preds = %3
  %10 = load ptr, ptr %5, align 8, !tbaa !14
  %11 = getelementptr inbounds nuw i8, ptr %10, i64 72
  %12 = load ptr, ptr %11, align 8, !tbaa !39
  %13 = load ptr, ptr %4, align 8, !tbaa !40
  %14 = getelementptr inbounds nuw i8, ptr %13, i64 584
  %15 = load ptr, ptr %14, align 8, !tbaa !42
  call void @N_VLinearSum(double noundef 1.000000e+00, ptr noundef %12, double noundef 1.000000e+00, ptr noundef %0, ptr noundef %15) #5
  %16 = load ptr, ptr %5, align 8, !tbaa !14
  %17 = getelementptr inbounds nuw i8, ptr %16, i64 144
  %18 = load ptr, ptr %17, align 8, !tbaa !29
  %19 = load ptr, ptr %4, align 8, !tbaa !40
  %20 = getelementptr inbounds nuw i8, ptr %19, i64 752
  %21 = load double, ptr %20, align 8, !tbaa !52
  %22 = getelementptr inbounds nuw i8, ptr %19, i64 584
  %23 = load ptr, ptr %22, align 8, !tbaa !42
  %24 = getelementptr inbounds nuw i8, ptr %16, i64 48
  %25 = load ptr, ptr %24, align 8, !tbaa !49
  %26 = getelementptr inbounds nuw i8, ptr %16, i64 96
  %27 = load i32, ptr %26, align 8, !tbaa !50
  %28 = sext i32 %27 to i64
  %29 = getelementptr inbounds ptr, ptr %25, i64 %28
  %30 = load ptr, ptr %29, align 8, !tbaa !51
  %31 = getelementptr inbounds nuw i8, ptr %19, i64 16
  %32 = load ptr, ptr %31, align 8, !tbaa !53
  %33 = call i32 %18(double noundef %21, ptr noundef %23, ptr noundef %30, ptr noundef %32) #5
  %34 = load ptr, ptr %5, align 8, !tbaa !14
  %35 = getelementptr inbounds nuw i8, ptr %34, i64 392
  %36 = load i64, ptr %35, align 8, !tbaa !54
  %37 = add nsw i64 %36, 1
  store i64 %37, ptr %35, align 8, !tbaa !54
  %38 = icmp slt i32 %33, 0
  br i1 %38, label %58, label %39

39:                                               ; preds = %9
  %.not11 = icmp eq i32 %33, 0
  br i1 %.not11, label %40, label %58

40:                                               ; preds = %39
  store double 1.000000e+00, ptr %6, align 16, !tbaa !55
  store ptr %0, ptr %7, align 16, !tbaa !51
  %41 = getelementptr inbounds nuw i8, ptr %6, i64 8
  store double -1.000000e+00, ptr %41, align 8, !tbaa !55
  %42 = getelementptr inbounds nuw i8, ptr %34, i64 64
  %43 = load ptr, ptr %42, align 8, !tbaa !56
  %44 = getelementptr inbounds nuw i8, ptr %7, i64 8
  store ptr %43, ptr %44, align 8, !tbaa !51
  %45 = getelementptr inbounds nuw i8, ptr %34, i64 152
  %46 = load double, ptr %45, align 8, !tbaa !57
  %47 = fneg double %46
  %48 = getelementptr inbounds nuw i8, ptr %6, i64 16
  store double %47, ptr %48, align 16, !tbaa !55
  %49 = getelementptr inbounds nuw i8, ptr %34, i64 48
  %50 = load ptr, ptr %49, align 8, !tbaa !49
  %51 = getelementptr inbounds nuw i8, ptr %34, i64 96
  %52 = load i32, ptr %51, align 8, !tbaa !50
  %53 = sext i32 %52 to i64
  %54 = getelementptr inbounds ptr, ptr %50, i64 %53
  %55 = load ptr, ptr %54, align 8, !tbaa !51
  %56 = getelementptr inbounds nuw i8, ptr %7, i64 16
  store ptr %55, ptr %56, align 16, !tbaa !51
  %57 = call i32 @N_VLinearCombination(i32 noundef 3, ptr noundef nonnull %6, ptr noundef nonnull %7, ptr noundef %1) #5
  %.not12 = icmp eq i32 %57, 0
  %. = select i1 %.not12, i32 0, i32 -28
  br label %58

58:                                               ; preds = %40, %39, %9, %3
  %.0 = phi i32 [ %8, %3 ], [ -8, %9 ], [ 9, %39 ], [ %., %40 ]
  call void @llvm.lifetime.end.p0(i64 24, ptr nonnull %7) #5
  call void @llvm.lifetime.end.p0(i64 24, ptr nonnull %6) #5
  call void @llvm.lifetime.end.p0(i64 8, ptr nonnull %5) #5
  call void @llvm.lifetime.end.p0(i64 8, ptr nonnull %4) #5
  ret i32 %.0
}